target datalayout = "e-m:e-p270:32:32-p271:32:32-p272:64:64-i64:64-i128:128-f80:128-n8:16:32:64-S128"
target triple = "x86_64-pc-linux-gnu"

@.str.88 = private unnamed_addr constant [29 x i8] c"FCoE Initialization Protocol\00", align 1
@.str.89 = private unnamed_addr constant [4 x i8] c"FIP\00", align 1
@.str.90 = private unnamed_addr constant [4 x i8] c"fip\00", align 1
@proto_fip = internal global i32 0, align 4
@fip_handle = internal global ptr null, align 8

; Function Attrs: null_pointer_is_valid sspstrong uwtable
define hidden void @proto_register_fip() #0 {
  %1 = alloca ptr, align 8
  call void @llvm.lifetime.start.p0(i64 8, ptr %1) #4
  %2 = call i32 @proto_register_protocol(ptr noundef @.str.88, ptr noundef @.str.89, ptr noundef @.str.90)
  store i32 %2, ptr @proto_fip, align 4
  %3 = load i32, ptr @proto_fip, align 4
  %4 = call ptr @register_dissector(ptr noundef @.str.90, ptr noundef @dissect_fip, i32 noundef %3)
  store ptr %4, ptr @fip_handle, align 8
  %5 = load i32, ptr @proto_fip, align 4
  call void @proto_register_field_array(i32 noundef %5, ptr noundef @proto_register_fip.hf, i32 noundef 44)
  call void @proto_register_subtree_array(ptr noundef @proto_register_fip.ett, i32 noundef 17)
  %6 = load i32, ptr @proto_fip, align 4
  %7 = call ptr @expert_register_protocol(i32 noundef %6)
  store ptr %7, ptr %1, align 8
  %8 = load ptr, ptr %1, align 8
  call void @expert_register_field_array(ptr noundef %8, ptr noundef @proto_register_fip.ei, i32 noundef 1)
  call void @llvm.lifetime.end.p0(i64 8, ptr %1) #4
  ret void
}