; Function Attrs: null_pointer_is_valid sspstrong uwtable
define hidden void @proto_register_fip() local_unnamed_addr #0 {
  %1 = tail call i32 @proto_register_protocol(ptr noundef nonnull @.str.88, ptr noundef nonnull @.str.89, ptr noundef nonnull @.str.90)
  store i32 %1, ptr @proto_fip, align 4
  %2 = tail call ptr @register_dissector(ptr noundef nonnull @.str.90, ptr noundef nonnull @dissect_fip, i32 noundef %1)
  store ptr %2, ptr @fip_handle, align 8
  %3 = load i32, ptr @proto_fip, align 4
  tail call void @proto_register_field_array(i32 noundef %3, ptr noundef nonnull @proto_register_fip.hf, i32 noundef 44)
  tail call void @proto_register_subtree_array(ptr noundef nonnull @proto_register_fip.ett, i32 noundef 17)
  %4 = load i32, ptr @proto_fip, align 4
  %5 = tail call ptr @expert_register_protocol(i32 noundef %4)
  tail call void @expert_register_field_array(ptr noundef %5, ptr noundef nonnull @proto_register_fip.ei, i32 noundef 1)
  ret void
}